target datalayout = "e-m:e-p270:32:32-p271:32:32-p272:64:64-i64:64-i128:128-f80:128-n8:16:32:64-S128"
target triple = "x86_64-unknown-linux-gnu"

%"class.sat::literal" = type { i32 }
%"class.sat::aig_cuts" = type { %class.random_gen, %"struct.sat::aig_cuts::config", %class.vector, %class.svector, %class.region, %"class.sat::cut_set", %"class.sat::cut_set", %"class.sat::cut_set", %class.vector.1, %class.svector.2, %class.svector.2, i32, i32, %class.svector.4, i32, %"class.std::function", %"class.std::function", %"class.std::function.6", %"class.std::function.6", %class.svector, [6 x ptr], [6 x i64], [6 x %"class.sat::literal"] }
%class.random_gen = type { i32 }
%"struct.sat::aig_cuts::config" = type <{ i32, i32, i32, i8, [3 x i8] }>
%class.vector = type { ptr }
%class.region = type { ptr, ptr, ptr, ptr, ptr }
%"class.sat::cut_set" = type { i32, ptr, i32, i32, ptr }
%class.vector.1 = type { ptr }
%class.svector.2 = type { %class.vector.3 }
%class.vector.3 = type { ptr }
%class.svector.4 = type { %class.vector.5 }
%class.vector.5 = type { ptr }
%"class.std::function" = type { %"class.std::_Function_base", ptr }
%"class.std::_Function_base" = type { %"union.std::_Any_data", ptr }
%"union.std::_Any_data" = type { %"union.std::_Nocopy_types" }
%"union.std::_Nocopy_types" = type { { i64, i64 } }
%"class.std::function.6" = type { %"class.std::_Function_base", ptr }
%class.svector = type { %class.vector.0 }
%class.vector.0 = type { ptr }
%"class.sat::cut" = type { i32, i32, [5 x i32], i64, i64 }

; Function Attrs: mustprogress uwtable
define linkonce_odr hidden void @_ZN3sat7cut_set5resetERSt8functionIFvjRKNS_3cutEEE(ptr noundef nonnull align 8 dereferenceable(32) %this, ptr noundef nonnull align 8 dereferenceable(32) %on_del) #5 comdat align 2 {
entry:
  %this.addr = alloca ptr, align 8
  %on_del.addr = alloca ptr, align 8
  store ptr %this, ptr %this.addr, align 8
  store ptr %on_del, ptr %on_del.addr, align 8
  %this1 = load ptr, ptr %this.addr, align 8
  %0 = load ptr, ptr %on_del.addr, align 8
  call void @_ZN3sat7cut_set6shrinkERSt8functionIFvjRKNS_3cutEEEj(ptr noundef nonnull align 8 dereferenceable(32) %this1, ptr noundef nonnull align 8 dereferenceable(32) %0, i32 noundef 0)
  ret void
}

; Function Attrs: mustprogress uwtable
define linkonce_odr hidden void @_ZN3sat8aig_cuts9push_backERNS_7cut_setERKNS_3cutE(ptr noundef nonnull align 8 dereferenceable(480) %this, ptr noundef nonnull align 8 dereferenceable(32) %cs, ptr noundef nonnull align 8 dereferenceable(48) %c) #5 comdat align 2 {
entry:
  %this.addr = alloca ptr, align 8
  %cs.addr = alloca ptr, align 8
  %c.addr = alloca ptr, align 8
  store ptr %this, ptr %this.addr, align 8
  store ptr %cs, ptr %cs.addr, align 8
  store ptr %c, ptr %c.addr, align 8
  %this1 = load ptr, ptr %this.addr, align 8
  %0 = load ptr, ptr %cs.addr, align 8
  %m_on_cut_add = getelementptr inbounds %"class.sat::aig_cuts", ptr %this1, i32 0, i32 17
  %1 = load ptr, ptr %c.addr, align 8
  call void @_ZN3sat7cut_set9push_backERSt8functionIFvjRKNS_3cutEEES4_(ptr noundef nonnull align 8 dereferenceable(32) %0, ptr noundef nonnull align 8 dereferenceable(32) %m_on_cut_add, ptr noundef nonnull align 8 dereferenceable(48) %1)
  ret void
}

; Function Attrs: mustprogress nounwind uwtable
define linkonce_odr hidden void @_ZN3sat3cutC2Ej(ptr noundef nonnull align 8 dereferenceable(48) %this, i32 noundef %id) unnamed_addr #4 comdat align 2 {
entry:
  %this.addr = alloca ptr, align 8
  %id.addr = alloca i32, align 4
  store ptr %this, ptr %this.addr, align 8
  store i32 %id, ptr %id.addr, align 4
  %this1 = load ptr, ptr %this.addr, align 8
  %m_filter = getelementptr inbounds %"class.sat::cut", ptr %this1, i32 0, i32 0
  %0 = load i32, ptr %id.addr, align 4
  %and = and i32 %0, 31
  %shl = shl i32 1, %and
  store i32 %shl, ptr %m_filter, align 8
  %m_size = getelementptr inbounds %"class.sat::cut", ptr %this1, i32 0, i32 1
  store i32 1, ptr %m_size, align 4
  %m_table = getelementptr inbounds %"class.sat::cut", ptr %this1, i32 0, i32 3
  store i64 2, ptr %m_table, align 8
  %m_dont_care = getelementptr inbounds %"class.sat::cut", ptr %this1, i32 0, i32 4
  store i64 0, ptr %m_dont_care, align 8
  %1 = load i32, ptr %id.addr, align 4
  %m_elems = getelementptr inbounds %"class.sat::cut", ptr %this1, i32 0, i32 2
  %arrayidx = getelementptr inbounds [5 x i32], ptr %m_elems, i64 0, i64 0
  store i32 %1, ptr %arrayidx, align 8
  %m_elems2 = getelementptr inbounds %"class.sat::cut", ptr %this1, i32 0, i32 2
  %arrayidx3 = getelementptr inbounds [5 x i32], ptr %m_elems2, i64 0, i64 4
  store i32 0, ptr %arrayidx3, align 8
  %m_elems4 = getelementptr inbounds %"class.sat::cut", ptr %this1, i32 0, i32 2
  %arrayidx5 = getelementptr inbounds [5 x i32], ptr %m_elems4, i64 0, i64 3
  store i32 0, ptr %arrayidx5, align 4
  %m_elems6 = getelementptr inbounds %"class.sat::cut", ptr %this1, i32 0, i32 2
  %arrayidx7 = getelementptr inbounds [5 x i32], ptr %m_elems6, i64 0, i64 2
  store i32 0, ptr %arrayidx7, align 8
  %m_elems8 = getelementptr inbounds %"class.sat::cut", ptr %this1, i32 0, i32 2
  %arrayidx9 = getelementptr inbounds [5 x i32], ptr %m_elems8, i64 0, i64 1
  store i32 0, ptr %arrayidx9, align 4
  ret void
}

; Function Attrs: mustprogress uwtable
define linkonce_odr hidden void @_ZN3sat8aig_cuts5resetERNS_7cut_setE(ptr noundef nonnull align 8 dereferenceable(480) %this, ptr noundef nonnull align 8 dereferenceable(32) %cs) #5 comdat align 2 {
entry:
  %this.addr = alloca ptr, align 8
  %cs.addr = alloca ptr, align 8
  store ptr %this, ptr %this.addr, align 8
  store ptr %cs, ptr %cs.addr, align 8
  %this1 = load ptr, ptr %this.addr, align 8
  %0 = load ptr, ptr %cs.addr, align 8
  %m_on_cut_del = getelementptr inbounds %"class.sat::aig_cuts", ptr %this1, i32 0, i32 18
  call void @_ZN3sat7cut_set5resetERSt8functionIFvjRKNS_3cutEEE(ptr noundef nonnull align 8 dereferenceable(32) %0, ptr noundef nonnull align 8 dereferenceable(32) %m_on_cut_del)
  ret void
}

; Function Attrs: mustprogress nounwind uwtable
define linkonce_odr hidden noundef nonnull align 8 dereferenceable(32) ptr @_ZN6vectorIN3sat7cut_setELb1EjEixEj(ptr noundef nonnull align 8 dereferenceable(8) %this, i32 noundef %idx) #4 comdat align 2 {
entry:
  %this.addr = alloca ptr, align 8
  %idx.addr = alloca i32, align 4
  store ptr %this, ptr %this.addr, align 8
  store i32 %idx, ptr %idx.addr, align 4
  %this1 = load ptr, ptr %this.addr, align 8
  %m_data = getelementptr inbounds %class.vector.1, ptr %this1, i32 0, i32 0
  %0 = load ptr, ptr %m_data, align 8
  %1 = load i32, ptr %idx.addr, align 4
  %idxprom = zext i32 %1 to i64
  %arrayidx = getelementptr inbounds %"class.sat::cut_set", ptr %0, i64 %idxprom
  ret ptr %arrayidx
}

; Function Attrs: mustprogress uwtable
define hidden void @_ZN3sat8aig_cuts12init_cut_setEj(ptr noundef nonnull align 8 dereferenceable(480) %this, i32 noundef %id) #5 align 2 {
entry:
  %this.addr = alloca ptr, align 8
  %id.addr = alloca i32, align 4
  %cut_set = alloca ptr, align 8
  %ref.tmp = alloca %"class.sat::cut", align 8
  store ptr %this, ptr %this.addr, align 8
  store i32 %id, ptr %id.addr, align 4
  %this1 = load ptr, ptr %this.addr, align 8
  %m_cuts = getelementptr inbounds %"class.sat::aig_cuts", ptr %this1, i32 0, i32 8
  %0 = load i32, ptr %id.addr, align 4
  %call = call noundef nonnull align 8 dereferenceable(32) ptr @_ZN6vectorIN3sat7cut_setELb1EjEixEj(ptr noundef nonnull align 8 dereferenceable(8) %m_cuts, i32 noundef %0)
  store ptr %call, ptr %cut_set, align 8
  %1 = load ptr, ptr %cut_set, align 8
  call void @_ZN3sat8aig_cuts5resetERNS_7cut_setE(ptr noundef nonnull align 8 dereferenceable(480) %this1, ptr noundef nonnull align 8 dereferenceable(32) %1)
  %2 = load ptr, ptr %cut_set, align 8
  %m_region = getelementptr inbounds %"class.sat::aig_cuts", ptr %this1, i32 0, i32 4
  %m_config = getelementptr inbounds %"class.sat::aig_cuts", ptr %this1, i32 0, i32 1
  %m_max_cutset_size = getelementptr inbounds %"struct.sat::aig_cuts::config", ptr %m_config, i32 0, i32 0
  %3 = load i32, ptr %m_max_cutset_size, align 4
  %add = add i32 %3, 1
  %4 = load i32, ptr %id.addr, align 4
  call void @_ZN3sat7cut_set4initER6regionjj(ptr noundef nonnull align 8 dereferenceable(32) %2, ptr noundef nonnull align 8 dereferenceable(40) %m_region, i32 noundef %add, i32 noundef %4)
  %5 = load ptr, ptr %cut_set, align 8
  %6 = load i32, ptr %id.addr, align 4
  call void @_ZN3sat3cutC2Ej(ptr noundef nonnull align 8 dereferenceable(48) %ref.tmp, i32 noundef %6)
  call void @_ZN3sat8aig_cuts9push_backERNS_7cut_setERKNS_3cutE(ptr noundef nonnull align 8 dereferenceable(480) %this1, ptr noundef nonnull align 8 dereferenceable(32) %5, ptr noundef nonnull align 8 dereferenceable(48) %ref.tmp)
  ret void
}