; Function Attrs: mustprogress uwtable
define hidden void @_ZN3sat8aig_cuts12init_cut_setEj(ptr noundef nonnull align 8 dereferenceable(480) %this, i32 noundef %id) local_unnamed_addr #3 align 2 {
entry:
  %ref.tmp = alloca %"class.sat::cut", align 8
  %m_cuts = getelementptr inbounds i8, ptr %this, i64 176
  %0 = load ptr, ptr %m_cuts, align 8
  %idxprom.i = zext i32 %id to i64
  %arrayidx.i = getelementptr inbounds %"class.sat::cut_set", ptr %0, i64 %idxprom.i
  %m_on_cut_del.i = getelementptr inbounds i8, ptr %this, i64 320
  tail call void @_ZN3sat7cut_set6shrinkERSt8functionIFvjRKNS_3cutEEEj(ptr noundef nonnull align 8 dereferenceable(32) %arrayidx.i, ptr noundef nonnull align 8 dereferenceable(32) %m_on_cut_del.i, i32 noundef 0)
  %m_region = getelementptr inbounds i8, ptr %this, i64 40
  %m_config = getelementptr inbounds i8, ptr %this, i64 4
  %1 = load i32, ptr %m_config, align 4
  %add = add i32 %1, 1
  tail call void @_ZN3sat7cut_set4initER6regionjj(ptr noundef nonnull align 8 dereferenceable(32) %arrayidx.i, ptr noundef nonnull align 8 dereferenceable(40) %m_region, i32 noundef %add, i32 noundef %id)
  %and.i = and i32 %id, 31
  %shl.i = shl nuw i32 1, %and.i
  store i32 %shl.i, ptr %ref.tmp, align 8
  %m_size.i = getelementptr inbounds i8, ptr %ref.tmp, i64 4
  store i32 1, ptr %m_size.i, align 4
  %m_table.i = getelementptr inbounds i8, ptr %ref.tmp, i64 32
  store i64 2, ptr %m_table.i, align 8
  %m_dont_care.i = getelementptr inbounds i8, ptr %ref.tmp, i64 40
  store i64 0, ptr %m_dont_care.i, align 8
  %m_elems.i = getelementptr inbounds i8, ptr %ref.tmp, i64 8
  store i32 %id, ptr %m_elems.i, align 8
  %arrayidx9.i = getelementptr inbounds i8, ptr %ref.tmp, i64 12
  call void @llvm.memset.p0.i64(ptr noundef nonnull align 4 dereferenceable(16) %arrayidx9.i, i8 0, i64 16, i1 false)
  %m_on_cut_add.i = getelementptr inbounds i8, ptr %this, i64 288
  call void @_ZN3sat7cut_set9push_backERSt8functionIFvjRKNS_3cutEEES4_(ptr noundef nonnull align 8 dereferenceable(32) %arrayidx.i, ptr noundef nonnull align 8 dereferenceable(32) %m_on_cut_add.i, ptr noundef nonnull align 8 dereferenceable(48) %ref.tmp)
  ret void
}